0000000000401a75 <add_xy>:
  401a75:	48 8d 04 37          	lea    (%rdi,%rsi,1),%rax
  401a79:	c3                   	retq   

0000000000401a7a <getval_376>:
  401a7a:	b8 89 c1 08 c9       	mov    $0xc908c189,%eax
  401a7f:	c3                   	retq   

0000000000401a80 <setval_439>:
  401a80:	c7 07 a9 d6 38 c9    	movl   $0xc938d6a9,(%rdi)
  401a86:	c3                   	retq   

0000000000401a87 <addval_311>:
  401a87:	8d 87 09 ca 84 db    	lea    -0x247b35f7(%rdi),%eax
  401a8d:	c3                   	retq   

0000000000401a8e <getval_436>:
  401a8e:	b8 89 c1 18 c0       	mov    $0xc018c189,%eax
  401a93:	c3                   	retq   

0000000000401a94 <addval_353>:
  401a94:	8d 87 89 c1 00 c9    	lea    -0x36ff3e77(%rdi),%eax
  401a9a:	c3                   	retq   

0000000000401a9b <addval_366>:
  401a9b:	8d 87 48 89 e0 c3    	lea    -0x3c1f76b8(%rdi),%eax
  401aa1:	c3                   	retq   

0000000000401aa2 <addval_378>:
  401aa2:	8d 87 09 d6 38 d2    	lea    -0x2dc729f7(%rdi),%eax
  401aa8:	c3                   	retq   

0000000000401aa9 <addval_483>:
  401aa9:	8d 87 48 89 e0 c1    	lea    -0x3e1f76b8(%rdi),%eax
  401aaf:	c3                   	retq   

0000000000401ab0 <getval_385>:
  401ab0:	b8 48 c9 e0 c3       	mov    $0xc3e0c948,%eax
  401ab5:	c3                   	retq   

0000000000401ab6 <setval_325>:
  401ab6:	c7 07 81 ca 84 db    	movl   $0xdb84ca81,(%rdi)
  401abc:	c3                   	retq   

0000000000401abd <setval_102>:
  401abd:	c7 07 89 d6 90 c2    	movl   $0xc290d689,(%rdi)
  401ac3:	c3                   	retq   

0000000000401ac4 <setval_321>:
  401ac4:	c7 07 89 ca 91 90    	movl   $0x9091ca89,(%rdi)
  401aca:	c3                   	retq   

0000000000401acb <setval_449>:
  401acb:	c7 07 89 d6 c1 66    	movl   $0x66c1d689,(%rdi)
  401ad1:	c3                   	retq   

0000000000401ad2 <getval_493>:
  401ad2:	b8 a9 d6 20 db       	mov    $0xdb20d6a9,%eax
  401ad7:	c3                   	retq   

0000000000401ad8 <setval_478>:
  401ad8:	c7 07 48 99 e0 90    	movl   $0x90e09948,(%rdi)
  401ade:	c3                   	retq   

0000000000401adf <getval_180>:
  401adf:	b8 4a 89 e0 c3       	mov    $0xc3e0894a,%eax
  401ae4:	c3                   	retq   

0000000000401ae5 <addval_109>:
  401ae5:	8d 87 35 89 c1 92    	lea    -0x6d3e76cb(%rdi),%eax
  401aeb:	c3                   	retq   

0000000000401aec <setval_374>:
  401aec:	c7 07 89 c1 94 c0    	movl   $0xc094c189,(%rdi)
  401af2:	c3                   	retq   

0000000000401af3 <setval_181>:
  401af3:	c7 07 89 ca c3 e2    	movl   $0xe2c3ca89,(%rdi)
  401af9:	c3                   	retq   

0000000000401afa <setval_259>:
  401afa:	c7 07 89 ca 30 c9    	movl   $0xc930ca89,(%rdi)
  401b00:	c3                   	retq   

0000000000401b01 <getval_105>:
  401b01:	b8 89 ca 90 c3       	mov    $0xc390ca89,%eax
  401b06:	c3                   	retq   

0000000000401b07 <addval_494>:
  401b07:	8d 87 89 c1 20 db    	lea    -0x24df3e77(%rdi),%eax
  401b0d:	c3                   	retq   

0000000000401b0e <setval_137>:
  401b0e:	c7 07 f2 89 d6 c3    	movl   $0xc3d689f2,(%rdi)
  401b14:	c3                   	retq   

0000000000401b15 <getval_243>:
  401b15:	b8 5b 99 d6 c3       	mov    $0xc3d6995b,%eax
  401b1a:	c3                   	retq   

0000000000401b1b <getval_335>:
  401b1b:	b8 48 89 e0 90       	mov    $0x90e08948,%eax
  401b20:	c3                   	retq   

0000000000401b21 <getval_115>:
  401b21:	b8 68 89 e0 c3       	mov    $0xc3e08968,%eax
  401b26:	c3                   	retq   

0000000000401b27 <addval_158>:
  401b27:	8d 87 89 d6 84 c0    	lea    -0x3f7b2977(%rdi),%eax
  401b2d:	c3                   	retq   

0000000000401b2e <getval_457>:
  401b2e:	b8 89 c1 94 c3       	mov    $0xc394c189,%eax
  401b33:	c3                   	retq   

0000000000401b34 <addval_400>:
  401b34:	8d 87 89 ca 94 db    	lea    -0x246b3577(%rdi),%eax
  401b3a:	c3                   	retq   

0000000000401b3b <getval_202>:
  401b3b:	b8 48 89 e0 94       	mov    $0x94e08948,%eax
  401b40:	c3                   	retq   

0000000000401b41 <addval_293>:
  401b41:	8d 87 89 c1 c2 18    	lea    0x18c2c189(%rdi),%eax
  401b47:	c3                   	retq   

0000000000401b48 <setval_479>:
  401b48:	c7 07 89 ca 28 db    	movl   $0xdb28ca89,(%rdi)
  401b4e:	c3                   	retq   

0000000000401b4f <end_farm>:
  401b4f:	b8 01 00 00 00       	mov    $0x1,%eax
  401b54:	c3                   	retq   
